target datalayout = "e-m:e-p270:32:32-p271:32:32-p272:64:64-i64:64-i128:128-f80:128-n8:16:32:64-S128"
target triple = "x86_64-pc-linux-gnu"

%struct.SDLTest_TextWindow = type { %struct.SDL_FRect, i32, i32, ptr }
%struct.SDL_FRect = type { float, float, float, float }

; Function Attrs: nounwind uwtable
define dso_local void @SDLTest_TextWindowAddTextWithLength(ptr noundef %0, ptr noundef %1, i64 noundef %2) #0 {
  %4 = alloca ptr, align 8
  %5 = alloca ptr, align 8
  %6 = alloca i64, align 8
  %7 = alloca i64, align 8
  %8 = alloca i8, align 1
  %9 = alloca ptr, align 8
  %10 = alloca i32, align 4
  store ptr %0, ptr %4, align 8
  store ptr %1, ptr %5, align 8
  store i64 %2, ptr %6, align 8
  call void @llvm.lifetime.start.p0(i64 8, ptr %7) #7
  call void @llvm.lifetime.start.p0(i64 1, ptr %8) #7
  store i8 0, ptr %8, align 1
  call void @llvm.lifetime.start.p0(i64 8, ptr %9) #7
  %11 = load i64, ptr %6, align 8
  %12 = icmp ugt i64 %11, 0
  br i1 %12, label %13, label %24

13:                                               ; preds = %3
  %14 = load ptr, ptr %5, align 8
  %15 = load i64, ptr %6, align 8
  %16 = sub i64 %15, 1
  %17 = getelementptr inbounds nuw i8, ptr %14, i64 %16
  %18 = load i8, ptr %17, align 1
  %19 = sext i8 %18 to i32
  %20 = icmp eq i32 %19, 10
  br i1 %20, label %21, label %24

21:                                               ; preds = %13
  %22 = load i64, ptr %6, align 8
  %23 = add i64 %22, -1
  store i64 %23, ptr %6, align 8
  store i8 1, ptr %8, align 1
  br label %24

24:                                               ; preds = %21, %13, %3
  %25 = load ptr, ptr %4, align 8
  %26 = getelementptr inbounds nuw %struct.SDLTest_TextWindow, ptr %25, i32 0, i32 3
  %27 = load ptr, ptr %26, align 8
  %28 = load ptr, ptr %4, align 8
  %29 = getelementptr inbounds nuw %struct.SDLTest_TextWindow, ptr %28, i32 0, i32 1
  %30 = load i32, ptr %29, align 8
  %31 = sext i32 %30 to i64
  %32 = getelementptr inbounds ptr, ptr %27, i64 %31
  %33 = load ptr, ptr %32, align 8
  %34 = icmp ne ptr %33, null
  br i1 %34, label %35, label %46

35:                                               ; preds = %24
  %36 = load ptr, ptr %4, align 8
  %37 = getelementptr inbounds nuw %struct.SDLTest_TextWindow, ptr %36, i32 0, i32 3
  %38 = load ptr, ptr %37, align 8
  %39 = load ptr, ptr %4, align 8
  %40 = getelementptr inbounds nuw %struct.SDLTest_TextWindow, ptr %39, i32 0, i32 1
  %41 = load i32, ptr %40, align 8
  %42 = sext i32 %41 to i64
  %43 = getelementptr inbounds ptr, ptr %38, i64 %42
  %44 = load ptr, ptr %43, align 8
  %45 = call i64 @SDL_strlen(ptr noundef %44)
  store i64 %45, ptr %7, align 8
  br label %47

46:                                               ; preds = %24
  store i64 0, ptr %7, align 8
  br label %47

47:                                               ; preds = %46, %35
  %48 = load ptr, ptr %5, align 8
  %49 = load i8, ptr %48, align 1
  %50 = sext i8 %49 to i32
  %51 = icmp eq i32 %50, 8
  br i1 %51, label %52, label %141

52:                                               ; preds = %47
  %53 = load i64, ptr %7, align 8
  %54 = icmp ne i64 %53, 0
  br i1 %54, label %55, label %112

55:                                               ; preds = %52
  br label %56

56:                                               ; preds = %95, %55
  %57 = load i64, ptr %7, align 8
  %58 = icmp ugt i64 %57, 1
  br i1 %58, label %59, label %93

59:                                               ; preds = %56
  %60 = load ptr, ptr %4, align 8
  %61 = getelementptr inbounds nuw %struct.SDLTest_TextWindow, ptr %60, i32 0, i32 3
  %62 = load ptr, ptr %61, align 8
  %63 = load ptr, ptr %4, align 8
  %64 = getelementptr inbounds nuw %struct.SDLTest_TextWindow, ptr %63, i32 0, i32 1
  %65 = load i32, ptr %64, align 8
  %66 = sext i32 %65 to i64
  %67 = getelementptr inbounds ptr, ptr %62, i64 %66
  %68 = load ptr, ptr %67, align 8
  %69 = load i64, ptr %7, align 8
  %70 = sub i64 %69, 1
  %71 = getelementptr inbounds nuw i8, ptr %68, i64 %70
  %72 = load i8, ptr %71, align 1
  %73 = zext i8 %72 to i32
  %74 = icmp sge i32 %73, 128
  br i1 %74, label %75, label %91

75:                                               ; preds = %59
  %76 = load ptr, ptr %4, align 8
  %77 = getelementptr inbounds nuw %struct.SDLTest_TextWindow, ptr %76, i32 0, i32 3
  %78 = load ptr, ptr %77, align 8
  %79 = load ptr, ptr %4, align 8
  %80 = getelementptr inbounds nuw %struct.SDLTest_TextWindow, ptr %79, i32 0, i32 1
  %81 = load i32, ptr %80, align 8
  %82 = sext i32 %81 to i64
  %83 = getelementptr inbounds ptr, ptr %78, i64 %82
  %84 = load ptr, ptr %83, align 8
  %85 = load i64, ptr %7, align 8
  %86 = sub i64 %85, 1
  %87 = getelementptr inbounds nuw i8, ptr %84, i64 %86
  %88 = load i8, ptr %87, align 1
  %89 = zext i8 %88 to i32
  %90 = icmp sle i32 %89, 191
  br label %91

91:                                               ; preds = %75, %59
  %92 = phi i1 [ false, %59 ], [ %90, %75 ]
  br label %93

93:                                               ; preds = %91, %56
  %94 = phi i1 [ false, %56 ], [ %92, %91 ]
  br i1 %94, label %95, label %98

95:                                               ; preds = %93
  %96 = load i64, ptr %7, align 8
  %97 = add i64 %96, -1
  store i64 %97, ptr %7, align 8
  br label %56, !llvm.loop !6

98:                                               ; preds = %93
  %99 = load i64, ptr %7, align 8
  %100 = add i64 %99, -1
  store i64 %100, ptr %7, align 8
  %101 = load ptr, ptr %4, align 8
  %102 = getelementptr inbounds nuw %struct.SDLTest_TextWindow, ptr %101, i32 0, i32 3
  %103 = load ptr, ptr %102, align 8
  %104 = load ptr, ptr %4, align 8
  %105 = getelementptr inbounds nuw %struct.SDLTest_TextWindow, ptr %104, i32 0, i32 1
  %106 = load i32, ptr %105, align 8
  %107 = sext i32 %106 to i64
  %108 = getelementptr inbounds ptr, ptr %103, i64 %107
  %109 = load ptr, ptr %108, align 8
  %110 = load i64, ptr %7, align 8
  %111 = getelementptr inbounds nuw i8, ptr %109, i64 %110
  store i8 0, ptr %111, align 1
  br label %140

112:                                              ; preds = %52
  %113 = load ptr, ptr %4, align 8
  %114 = getelementptr inbounds nuw %struct.SDLTest_TextWindow, ptr %113, i32 0, i32 1
  %115 = load i32, ptr %114, align 8
  %116 = icmp sgt i32 %115, 0
  br i1 %116, label %117, label %139

117:                                              ; preds = %112
  %118 = load ptr, ptr %4, align 8
  %119 = getelementptr inbounds nuw %struct.SDLTest_TextWindow, ptr %118, i32 0, i32 3
  %120 = load ptr, ptr %119, align 8
  %121 = load ptr, ptr %4, align 8
  %122 = getelementptr inbounds nuw %struct.SDLTest_TextWindow, ptr %121, i32 0, i32 1
  %123 = load i32, ptr %122, align 8
  %124 = sext i32 %123 to i64
  %125 = getelementptr inbounds ptr, ptr %120, i64 %124
  %126 = load ptr, ptr %125, align 8
  call void @SDL_free(ptr noundef %126)
  %127 = load ptr, ptr %4, align 8
  %128 = getelementptr inbounds nuw %struct.SDLTest_TextWindow, ptr %127, i32 0, i32 3
  %129 = load ptr, ptr %128, align 8
  %130 = load ptr, ptr %4, align 8
  %131 = getelementptr inbounds nuw %struct.SDLTest_TextWindow, ptr %130, i32 0, i32 1
  %132 = load i32, ptr %131, align 8
  %133 = sext i32 %132 to i64
  %134 = getelementptr inbounds ptr, ptr %129, i64 %133
  store ptr null, ptr %134, align 8
  %135 = load ptr, ptr %4, align 8
  %136 = getelementptr inbounds nuw %struct.SDLTest_TextWindow, ptr %135, i32 0, i32 1
  %137 = load i32, ptr %136, align 8
  %138 = add nsw i32 %137, -1
  store i32 %138, ptr %136, align 8
  br label %139

139:                                              ; preds = %117, %112
  br label %140

140:                                              ; preds = %139, %98
  store i32 1, ptr %10, align 4
  br label %225

141:                                              ; preds = %47
  %142 = load ptr, ptr %4, align 8
  %143 = getelementptr inbounds nuw %struct.SDLTest_TextWindow, ptr %142, i32 0, i32 3
  %144 = load ptr, ptr %143, align 8
  %145 = load ptr, ptr %4, align 8
  %146 = getelementptr inbounds nuw %struct.SDLTest_TextWindow, ptr %145, i32 0, i32 1
  %147 = load i32, ptr %146, align 8
  %148 = sext i32 %147 to i64
  %149 = getelementptr inbounds ptr, ptr %144, i64 %148
  %150 = load ptr, ptr %149, align 8
  %151 = load i64, ptr %7, align 8
  %152 = load i64, ptr %6, align 8
  %153 = add i64 %151, %152
  %154 = add i64 %153, 1
  %155 = call ptr @SDL_realloc(ptr noundef %150, i64 noundef %154) #9
  store ptr %155, ptr %9, align 8
  %156 = load ptr, ptr %9, align 8
  %157 = icmp ne ptr %156, null
  br i1 %157, label %158, label %224

158:                                              ; preds = %141
  %159 = load ptr, ptr %9, align 8
  %160 = load i64, ptr %7, align 8
  %161 = getelementptr inbounds nuw i8, ptr %159, i64 %160
  %162 = load ptr, ptr %5, align 8
  %163 = load i64, ptr %6, align 8
  call void @llvm.memcpy.p0.p0.i64(ptr align 1 %161, ptr align 1 %162, i64 %163, i1 false)
  %164 = load ptr, ptr %9, align 8
  %165 = load i64, ptr %7, align 8
  %166 = load i64, ptr %6, align 8
  %167 = add i64 %165, %166
  %168 = getelementptr inbounds nuw i8, ptr %164, i64 %167
  store i8 0, ptr %168, align 1
  %169 = load ptr, ptr %9, align 8
  %170 = load ptr, ptr %4, align 8
  %171 = getelementptr inbounds nuw %struct.SDLTest_TextWindow, ptr %170, i32 0, i32 3
  %172 = load ptr, ptr %171, align 8
  %173 = load ptr, ptr %4, align 8
  %174 = getelementptr inbounds nuw %struct.SDLTest_TextWindow, ptr %173, i32 0, i32 1
  %175 = load i32, ptr %174, align 8
  %176 = sext i32 %175 to i64
  %177 = getelementptr inbounds ptr, ptr %172, i64 %176
  store ptr %169, ptr %177, align 8
  %178 = load i8, ptr %8, align 1, !range !7, !noundef !8
  %179 = trunc i8 %178 to i1
  br i1 %179, label %180, label %223

180:                                              ; preds = %158
  %181 = load ptr, ptr %4, align 8
  %182 = getelementptr inbounds nuw %struct.SDLTest_TextWindow, ptr %181, i32 0, i32 1
  %183 = load i32, ptr %182, align 8
  %184 = load ptr, ptr %4, align 8
  %185 = getelementptr inbounds nuw %struct.SDLTest_TextWindow, ptr %184, i32 0, i32 2
  %186 = load i32, ptr %185, align 4
  %187 = sub nsw i32 %186, 1
  %188 = icmp eq i32 %183, %187
  br i1 %188, label %189, label %217

189:                                              ; preds = %180
  %190 = load ptr, ptr %4, align 8
  %191 = getelementptr inbounds nuw %struct.SDLTest_TextWindow, ptr %190, i32 0, i32 3
  %192 = load ptr, ptr %191, align 8
  %193 = getelementptr inbounds ptr, ptr %192, i64 0
  %194 = load ptr, ptr %193, align 8
  call void @SDL_free(ptr noundef %194)
  %195 = load ptr, ptr %4, align 8
  %196 = getelementptr inbounds nuw %struct.SDLTest_TextWindow, ptr %195, i32 0, i32 3
  %197 = load ptr, ptr %196, align 8
  %198 = getelementptr inbounds ptr, ptr %197, i64 0
  %199 = load ptr, ptr %4, align 8
  %200 = getelementptr inbounds nuw %struct.SDLTest_TextWindow, ptr %199, i32 0, i32 3
  %201 = load ptr, ptr %200, align 8
  %202 = getelementptr inbounds ptr, ptr %201, i64 1
  %203 = load ptr, ptr %4, align 8
  %204 = getelementptr inbounds nuw %struct.SDLTest_TextWindow, ptr %203, i32 0, i32 2
  %205 = load i32, ptr %204, align 4
  %206 = sub nsw i32 %205, 1
  %207 = sext i32 %206 to i64
  %208 = mul i64 %207, 8
  call void @llvm.memmove.p0.p0.i64(ptr align 8 %198, ptr align 8 %202, i64 %208, i1 false)
  %209 = load ptr, ptr %4, align 8
  %210 = getelementptr inbounds nuw %struct.SDLTest_TextWindow, ptr %209, i32 0, i32 3
  %211 = load ptr, ptr %210, align 8
  %212 = load ptr, ptr %4, align 8
  %213 = getelementptr inbounds nuw %struct.SDLTest_TextWindow, ptr %212, i32 0, i32 1
  %214 = load i32, ptr %213, align 8
  %215 = sext i32 %214 to i64
  %216 = getelementptr inbounds ptr, ptr %211, i64 %215
  store ptr null, ptr %216, align 8
  br label %222

217:                                              ; preds = %180
  %218 = load ptr, ptr %4, align 8
  %219 = getelementptr inbounds nuw %struct.SDLTest_TextWindow, ptr %218, i32 0, i32 1
  %220 = load i32, ptr %219, align 8
  %221 = add nsw i32 %220, 1
  store i32 %221, ptr %219, align 8
  br label %222

222:                                              ; preds = %217, %189
  br label %223

223:                                              ; preds = %222, %158
  br label %224

224:                                              ; preds = %223, %141
  store i32 0, ptr %10, align 4
  br label %225

225:                                              ; preds = %224, %140
  call void @llvm.lifetime.end.p0(i64 8, ptr %9) #7
  call void @llvm.lifetime.end.p0(i64 1, ptr %8) #7
  call void @llvm.lifetime.end.p0(i64 8, ptr %7) #7
  %226 = load i32, ptr %10, align 4
  switch i32 %226, label %228 [
    i32 0, label %227
    i32 1, label %227
  ]

227:                                              ; preds = %225, %225
  ret void

228:                                              ; preds = %225
  unreachable
}