; Function Attrs: nounwind uwtable
define dso_local void @SDLTest_TextWindowAddTextWithLength(ptr noundef captures(none) %0, ptr noundef readonly captures(none) %1, i64 noundef %2) local_unnamed_addr #0 {
  %.not = icmp eq i64 %2, 0
  br i1 %.not, label %10, label %4

4:                                                ; preds = %3
  %5 = getelementptr i8, ptr %1, i64 %2
  %6 = getelementptr i8, ptr %5, i64 -1
  %7 = load i8, ptr %6, align 1
  %8 = icmp eq i8 %7, 10
  %9 = sext i1 %8 to i64
  %spec.select64 = add i64 %2, %9
  br label %10

10:                                               ; preds = %4, %3
  %.052 = phi i1 [ false, %3 ], [ %8, %4 ]
  %.0 = phi i64 [ 0, %3 ], [ %spec.select64, %4 ]
  %11 = getelementptr inbounds nuw i8, ptr %0, i64 24
  %12 = load ptr, ptr %11, align 8
  %13 = getelementptr inbounds nuw i8, ptr %0, i64 16
  %14 = load i32, ptr %13, align 8
  %15 = sext i32 %14 to i64
  %16 = getelementptr inbounds ptr, ptr %12, i64 %15
  %17 = load ptr, ptr %16, align 8
  %.not61 = icmp eq ptr %17, null
  br i1 %.not61, label %.thread, label %18

18:                                               ; preds = %10
  %19 = tail call i64 @SDL_strlen(ptr noundef nonnull %17) #8
  %20 = load i8, ptr %1, align 1
  %21 = icmp eq i8 %20, 8
  %.pre83 = load i32, ptr %13, align 8
  br i1 %21, label %24, label %._crit_edge

._crit_edge:                                      ; preds = %18
  %.pre78 = load ptr, ptr %11, align 8
  %.phi.trans.insert80 = sext i32 %.pre83 to i64
  %.phi.trans.insert81 = getelementptr inbounds ptr, ptr %.pre78, i64 %.phi.trans.insert80
  %.pre82 = load ptr, ptr %.phi.trans.insert81, align 8
  br label %45

.thread:                                          ; preds = %10
  %22 = load i8, ptr %1, align 1
  %23 = icmp eq i8 %22, 8
  br i1 %23, label %.thread68, label %45

24:                                               ; preds = %18
  %.not63 = icmp eq i64 %19, 0
  br i1 %.not63, label %.thread68, label %.preheader

.preheader:                                       ; preds = %24
  %.not74 = icmp eq i64 %19, 1
  %.pre = load ptr, ptr %11, align 8
  %.phi.trans.insert = sext i32 %.pre83 to i64
  %.phi.trans.insert76 = getelementptr inbounds ptr, ptr %.pre, i64 %.phi.trans.insert
  %.pre77 = load ptr, ptr %.phi.trans.insert76, align 8
  br i1 %.not74, label %.critedge, label %.lr.ph

.lr.ph:                                           ; preds = %.preheader
  %invariant.gep = getelementptr i8, ptr %.pre77, i64 -1
  br label %25

25:                                               ; preds = %.lr.ph, %27
  %.171 = phi i64 [ %19, %.lr.ph ], [ %28, %27 ]
  %gep = getelementptr i8, ptr %invariant.gep, i64 %.171
  %26 = load i8, ptr %gep, align 1
  %or.cond = icmp slt i8 %26, -64
  br i1 %or.cond, label %27, label %.critedge

27:                                               ; preds = %25
  %28 = add i64 %.171, -1
  %29 = icmp ugt i64 %28, 1
  br i1 %29, label %25, label %.critedge, !llvm.loop !6

.critedge:                                        ; preds = %25, %27, %.preheader
  %.1.lcssa = phi i64 [ 1, %.preheader ], [ 1, %27 ], [ %.171, %25 ]
  %30 = getelementptr i8, ptr %.pre77, i64 %.1.lcssa
  %31 = getelementptr i8, ptr %30, i64 -1
  store i8 0, ptr %31, align 1
  br label %78

.thread68:                                        ; preds = %.thread, %24
  %32 = phi i32 [ %14, %.thread ], [ %.pre83, %24 ]
  %33 = icmp sgt i32 %32, 0
  br i1 %33, label %34, label %78

34:                                               ; preds = %.thread68
  %35 = load ptr, ptr %11, align 8
  %36 = zext nneg i32 %32 to i64
  %37 = getelementptr inbounds nuw ptr, ptr %35, i64 %36
  %38 = load ptr, ptr %37, align 8
  tail call void @SDL_free(ptr noundef %38) #8
  %39 = load ptr, ptr %11, align 8
  %40 = load i32, ptr %13, align 8
  %41 = sext i32 %40 to i64
  %42 = getelementptr inbounds ptr, ptr %39, i64 %41
  store ptr null, ptr %42, align 8
  %43 = load i32, ptr %13, align 8
  %44 = add nsw i32 %43, -1
  store i32 %44, ptr %13, align 8
  br label %78

45:                                               ; preds = %._crit_edge, %.thread
  %46 = phi ptr [ null, %.thread ], [ %.pre82, %._crit_edge ]
  %.05367 = phi i64 [ 0, %.thread ], [ %19, %._crit_edge ]
  %47 = add i64 %.05367, %.0
  %48 = add i64 %47, 1
  %49 = tail call ptr @SDL_realloc(ptr noundef %46, i64 noundef %48) #10
  %.not62 = icmp eq ptr %49, null
  br i1 %.not62, label %78, label %50

50:                                               ; preds = %45
  %51 = getelementptr inbounds nuw i8, ptr %49, i64 %.05367
  tail call void @llvm.memcpy.p0.p0.i64(ptr nonnull align 1 %51, ptr nonnull align 1 %1, i64 %.0, i1 false)
  %52 = getelementptr inbounds nuw i8, ptr %49, i64 %47
  store i8 0, ptr %52, align 1
  %53 = load ptr, ptr %11, align 8
  %54 = load i32, ptr %13, align 8
  %55 = sext i32 %54 to i64
  %56 = getelementptr inbounds ptr, ptr %53, i64 %55
  store ptr %49, ptr %56, align 8
  br i1 %.052, label %57, label %78

57:                                               ; preds = %50
  %58 = load i32, ptr %13, align 8
  %59 = getelementptr inbounds nuw i8, ptr %0, i64 20
  %60 = load i32, ptr %59, align 4
  %61 = add nsw i32 %60, -1
  %62 = icmp eq i32 %58, %61
  br i1 %62, label %63, label %76

63:                                               ; preds = %57
  %64 = load ptr, ptr %11, align 8
  %65 = load ptr, ptr %64, align 8
  tail call void @SDL_free(ptr noundef %65) #8
  %66 = load ptr, ptr %11, align 8
  %67 = getelementptr inbounds nuw i8, ptr %66, i64 8
  %68 = load i32, ptr %59, align 4
  %69 = add nsw i32 %68, -1
  %70 = sext i32 %69 to i64
  %71 = shl nsw i64 %70, 3
  tail call void @llvm.memmove.p0.p0.i64(ptr align 8 %66, ptr nonnull align 8 %67, i64 %71, i1 false)
  %72 = load ptr, ptr %11, align 8
  %73 = load i32, ptr %13, align 8
  %74 = sext i32 %73 to i64
  %75 = getelementptr inbounds ptr, ptr %72, i64 %74
  store ptr null, ptr %75, align 8
  br label %78

76:                                               ; preds = %57
  %77 = add nsw i32 %58, 1
  store i32 %77, ptr %13, align 8
  br label %78

78:                                               ; preds = %45, %63, %76, %50, %.critedge, %34, %.thread68
  ret void
}